target datalayout = "e-m:e-p270:32:32-p271:32:32-p272:64:64-i64:64-i128:128-f80:128-n8:16:32:64-S128"
target triple = "x86_64-pc-linux-gnu"

%struct.vtx_data = type { i64, ptr, ptr, ptr, ptr }

@stderr = external global ptr, align 8
@.str = private unnamed_addr constant [58 x i8] c"integer overflow when trying to allocate %zu * %zu bytes\0A\00", align 1
@.str.1 = private unnamed_addr constant [49 x i8] c"out of memory when trying to allocate %zu bytes\0A\00", align 1

; Function Attrs: inlinehint nounwind uwtable
define internal ptr @gv_calloc(i64 noundef %0, i64 noundef %1) #2 {
  %3 = alloca i64, align 8
  %4 = alloca i64, align 8
  %5 = alloca ptr, align 8
  store i64 %0, ptr %3, align 8, !tbaa !25
  store i64 %1, ptr %4, align 8, !tbaa !25
  %6 = load i64, ptr %3, align 8, !tbaa !25
  %7 = icmp ugt i64 %6, 0
  br i1 %7, label %8, label %18

8:                                                ; preds = %2
  %9 = load i64, ptr %3, align 8, !tbaa !25
  %10 = udiv i64 -1, %9
  %11 = load i64, ptr %4, align 8, !tbaa !25
  %12 = icmp ult i64 %10, %11
  br i1 %12, label %13, label %18

13:                                               ; preds = %8
  %14 = load ptr, ptr @stderr, align 8, !tbaa !27
  %15 = load i64, ptr %3, align 8, !tbaa !25
  %16 = load i64, ptr %4, align 8, !tbaa !25
  %17 = call i32 (ptr, ptr, ...) @fprintf(ptr noundef %14, ptr noundef @.str, i64 noundef %15, i64 noundef %16) #8
  call void @graphviz_exit(i32 noundef 1) #9
  unreachable

18:                                               ; preds = %8, %2
  call void @llvm.lifetime.start.p0(i64 8, ptr %5) #8
  %19 = load i64, ptr %3, align 8, !tbaa !25
  %20 = load i64, ptr %4, align 8, !tbaa !25
  %21 = call noalias ptr @calloc(i64 noundef %19, i64 noundef %20) #10
  store ptr %21, ptr %5, align 8, !tbaa !29
  %22 = load i64, ptr %3, align 8, !tbaa !25
  %23 = icmp ugt i64 %22, 0
  br i1 %23, label %24, label %36

24:                                               ; preds = %18
  %25 = load i64, ptr %4, align 8, !tbaa !25
  %26 = icmp ugt i64 %25, 0
  br i1 %26, label %27, label %36

27:                                               ; preds = %24
  %28 = load ptr, ptr %5, align 8, !tbaa !29
  %29 = icmp eq ptr %28, null
  br i1 %29, label %30, label %36

30:                                               ; preds = %27
  %31 = load ptr, ptr @stderr, align 8, !tbaa !27
  %32 = load i64, ptr %3, align 8, !tbaa !25
  %33 = load i64, ptr %4, align 8, !tbaa !25
  %34 = mul i64 %32, %33
  %35 = call i32 (ptr, ptr, ...) @fprintf(ptr noundef %31, ptr noundef @.str.1, i64 noundef %34) #8
  call void @graphviz_exit(i32 noundef 1) #9
  unreachable

36:                                               ; preds = %27, %24, %18
  %37 = load ptr, ptr %5, align 8, !tbaa !29
  call void @llvm.lifetime.end.p0(i64 8, ptr %5) #8
  ret ptr %37
}

; Function Attrs: nounwind uwtable
define void @mult_sparse_dense_mat_transpose(ptr noundef %0, ptr noundef %1, i32 noundef %2, i32 noundef %3, ptr noundef %4) #0 {
  %6 = alloca ptr, align 8
  %7 = alloca ptr, align 8
  %8 = alloca i32, align 4
  %9 = alloca i32, align 4
  %10 = alloca ptr, align 8
  %11 = alloca i32, align 4
  %12 = alloca i32, align 4
  %13 = alloca double, align 8
  %14 = alloca ptr, align 8
  %15 = alloca ptr, align 8
  %16 = alloca ptr, align 8
  %17 = alloca ptr, align 8
  %18 = alloca i64, align 8
  %19 = alloca i64, align 8
  store ptr %0, ptr %6, align 8, !tbaa !29
  store ptr %1, ptr %7, align 8, !tbaa !3
  store i32 %2, ptr %8, align 4, !tbaa !8
  store i32 %3, ptr %9, align 4, !tbaa !8
  store ptr %4, ptr %10, align 8, !tbaa !38
  call void @llvm.lifetime.start.p0(i64 4, ptr %11) #8
  call void @llvm.lifetime.start.p0(i64 4, ptr %12) #8
  call void @llvm.lifetime.start.p0(i64 8, ptr %13) #8
  call void @llvm.lifetime.start.p0(i64 8, ptr %14) #8
  call void @llvm.lifetime.start.p0(i64 8, ptr %15) #8
  call void @llvm.lifetime.start.p0(i64 8, ptr %16) #8
  %20 = load i32, ptr %8, align 4, !tbaa !8
  %21 = load i32, ptr %9, align 4, !tbaa !8
  %22 = mul nsw i32 %20, %21
  %23 = sext i32 %22 to i64
  %24 = call ptr @gv_calloc(i64 noundef %23, i64 noundef 40)
  store ptr %24, ptr %16, align 8, !tbaa !40
  call void @llvm.lifetime.start.p0(i64 8, ptr %17) #8
  %25 = load i32, ptr %8, align 4, !tbaa !8
  %26 = sext i32 %25 to i64
  %27 = call ptr @gv_calloc(i64 noundef %26, i64 noundef 8)
  %28 = load ptr, ptr %10, align 8, !tbaa !38
  store ptr %27, ptr %28, align 8, !tbaa !36
  store ptr %27, ptr %17, align 8, !tbaa !36
  store i32 0, ptr %11, align 4, !tbaa !8
  br label %29

29:                                               ; preds = %43, %5
  %30 = load i32, ptr %11, align 4, !tbaa !8
  %31 = load i32, ptr %8, align 4, !tbaa !8
  %32 = icmp slt i32 %30, %31
  br i1 %32, label %33, label %46

33:                                               ; preds = %29
  %34 = load ptr, ptr %16, align 8, !tbaa !40
  %35 = load ptr, ptr %17, align 8, !tbaa !36
  %36 = load i32, ptr %11, align 4, !tbaa !8
  %37 = sext i32 %36 to i64
  %38 = getelementptr inbounds ptr, ptr %35, i64 %37
  store ptr %34, ptr %38, align 8, !tbaa !40
  %39 = load i32, ptr %9, align 4, !tbaa !8
  %40 = load ptr, ptr %16, align 8, !tbaa !40
  %41 = sext i32 %39 to i64
  %42 = getelementptr inbounds float, ptr %40, i64 %41
  store ptr %42, ptr %16, align 8, !tbaa !40
  br label %43

43:                                               ; preds = %33
  %44 = load i32, ptr %11, align 4, !tbaa !8
  %45 = add nsw i32 %44, 1
  store i32 %45, ptr %11, align 4, !tbaa !8
  br label %29, !llvm.loop !54

46:                                               ; preds = %29
  store i32 0, ptr %11, align 4, !tbaa !8
  br label %47

47:                                               ; preds = %118, %46
  %48 = load i32, ptr %11, align 4, !tbaa !8
  %49 = load i32, ptr %8, align 4, !tbaa !8
  %50 = icmp slt i32 %48, %49
  br i1 %50, label %51, label %121

51:                                               ; preds = %47
  %52 = load ptr, ptr %6, align 8, !tbaa !29
  %53 = load i32, ptr %11, align 4, !tbaa !8
  %54 = sext i32 %53 to i64
  %55 = getelementptr inbounds %struct.vtx_data, ptr %52, i64 %54
  %56 = getelementptr inbounds nuw %struct.vtx_data, ptr %55, i32 0, i32 1
  %57 = load ptr, ptr %56, align 8, !tbaa !55
  store ptr %57, ptr %15, align 8, !tbaa !58
  %58 = load ptr, ptr %6, align 8, !tbaa !29
  %59 = load i32, ptr %11, align 4, !tbaa !8
  %60 = sext i32 %59 to i64
  %61 = getelementptr inbounds %struct.vtx_data, ptr %58, i64 %60
  %62 = getelementptr inbounds nuw %struct.vtx_data, ptr %61, i32 0, i32 2
  %63 = load ptr, ptr %62, align 8, !tbaa !59
  store ptr %63, ptr %14, align 8, !tbaa !40
  call void @llvm.lifetime.start.p0(i64 8, ptr %18) #8
  %64 = load ptr, ptr %6, align 8, !tbaa !29
  %65 = load i32, ptr %11, align 4, !tbaa !8
  %66 = sext i32 %65 to i64
  %67 = getelementptr inbounds %struct.vtx_data, ptr %64, i64 %66
  %68 = getelementptr inbounds nuw %struct.vtx_data, ptr %67, i32 0, i32 0
  %69 = load i64, ptr %68, align 8, !tbaa !60
  store i64 %69, ptr %18, align 8, !tbaa !25
  store i32 0, ptr %12, align 4, !tbaa !8
  br label %70

70:                                               ; preds = %114, %51
  %71 = load i32, ptr %12, align 4, !tbaa !8
  %72 = load i32, ptr %9, align 4, !tbaa !8
  %73 = icmp slt i32 %71, %72
  br i1 %73, label %74, label %117

74:                                               ; preds = %70
  store double 0.000000e+00, ptr %13, align 8, !tbaa !12
  call void @llvm.lifetime.start.p0(i64 8, ptr %19) #8
  store i64 0, ptr %19, align 8, !tbaa !25
  br label %75

75:                                               ; preds = %100, %74
  %76 = load i64, ptr %19, align 8, !tbaa !25
  %77 = load i64, ptr %18, align 8, !tbaa !25
  %78 = icmp ult i64 %76, %77
  br i1 %78, label %80, label %79

79:                                               ; preds = %75
  call void @llvm.lifetime.end.p0(i64 8, ptr %19) #8
  br label %103

80:                                               ; preds = %75
  %81 = load ptr, ptr %14, align 8, !tbaa !40
  %82 = load i64, ptr %19, align 8, !tbaa !25
  %83 = getelementptr inbounds nuw float, ptr %81, i64 %82
  %84 = load float, ptr %83, align 4, !tbaa !43
  %85 = fpext float %84 to double
  %86 = load ptr, ptr %7, align 8, !tbaa !3
  %87 = load i32, ptr %12, align 4, !tbaa !8
  %88 = sext i32 %87 to i64
  %89 = getelementptr inbounds ptr, ptr %86, i64 %88
  %90 = load ptr, ptr %89, align 8, !tbaa !10
  %91 = load ptr, ptr %15, align 8, !tbaa !58
  %92 = load i64, ptr %19, align 8, !tbaa !25
  %93 = getelementptr inbounds nuw i32, ptr %91, i64 %92
  %94 = load i32, ptr %93, align 4, !tbaa !8
  %95 = sext i32 %94 to i64
  %96 = getelementptr inbounds double, ptr %90, i64 %95
  %97 = load double, ptr %96, align 8, !tbaa !12
  %98 = load double, ptr %13, align 8, !tbaa !12
  %99 = call double @llvm.fmuladd.f64(double %85, double %97, double %98)
  store double %99, ptr %13, align 8, !tbaa !12
  br label %100

100:                                              ; preds = %80
  %101 = load i64, ptr %19, align 8, !tbaa !25
  %102 = add i64 %101, 1
  store i64 %102, ptr %19, align 8, !tbaa !25
  br label %75, !llvm.loop !61

103:                                              ; preds = %79
  %104 = load double, ptr %13, align 8, !tbaa !12
  %105 = fptrunc double %104 to float
  %106 = load ptr, ptr %17, align 8, !tbaa !36
  %107 = load i32, ptr %11, align 4, !tbaa !8
  %108 = sext i32 %107 to i64
  %109 = getelementptr inbounds ptr, ptr %106, i64 %108
  %110 = load ptr, ptr %109, align 8, !tbaa !40
  %111 = load i32, ptr %12, align 4, !tbaa !8
  %112 = sext i32 %111 to i64
  %113 = getelementptr inbounds float, ptr %110, i64 %112
  store float %105, ptr %113, align 4, !tbaa !43
  br label %114

114:                                              ; preds = %103
  %115 = load i32, ptr %12, align 4, !tbaa !8
  %116 = add nsw i32 %115, 1
  store i32 %116, ptr %12, align 4, !tbaa !8
  br label %70, !llvm.loop !62

117:                                              ; preds = %70
  call void @llvm.lifetime.end.p0(i64 8, ptr %18) #8
  br label %118

118:                                              ; preds = %117
  %119 = load i32, ptr %11, align 4, !tbaa !8
  %120 = add nsw i32 %119, 1
  store i32 %120, ptr %11, align 4, !tbaa !8
  br label %47, !llvm.loop !63

121:                                              ; preds = %47
  call void @llvm.lifetime.end.p0(i64 8, ptr %17) #8
  call void @llvm.lifetime.end.p0(i64 8, ptr %16) #8
  call void @llvm.lifetime.end.p0(i64 8, ptr %15) #8
  call void @llvm.lifetime.end.p0(i64 8, ptr %14) #8
  call void @llvm.lifetime.end.p0(i64 8, ptr %13) #8
  call void @llvm.lifetime.end.p0(i64 4, ptr %12) #8
  call void @llvm.lifetime.end.p0(i64 4, ptr %11) #8
  ret void
}