; Function Attrs: nofree nounwind uwtable
define void @mult_sparse_dense_mat_transpose(ptr noundef readonly captures(none) %0, ptr noundef readonly captures(none) %1, i32 noundef %2, i32 noundef %3, ptr noundef writeonly captures(none) %4) local_unnamed_addr #8 {
  %6 = mul nsw i32 %3, %2
  %7 = sext i32 %6 to i64
  %.not.i = icmp eq i32 %6, 0
  br i1 %.not.i, label %.thread.i, label %9

.thread.i:                                        ; preds = %5
  %8 = tail call noalias ptr @calloc(i64 noundef 0, i64 noundef 40) #20
  br label %gv_calloc.exit

9:                                                ; preds = %5
  %mul.ov.i = icmp slt i32 %6, 0
  br i1 %mul.ov.i, label %10, label %13

10:                                               ; preds = %9
  %11 = load ptr, ptr @stderr, align 8, !tbaa !3
  %12 = tail call i32 (ptr, ptr, ...) @fprintf(ptr noundef %11, ptr noundef nonnull @.str, i64 noundef range(i64 -2147483648, 2147483648) %7, i64 noundef 40) #18
  tail call fastcc void @graphviz_exit() #19
  unreachable

13:                                               ; preds = %9
  %14 = tail call noalias ptr @calloc(i64 noundef range(i64 -2147483648, 2147483648) %7, i64 noundef 40) #20
  %15 = icmp eq ptr %14, null
  br i1 %15, label %16, label %gv_calloc.exit

16:                                               ; preds = %13
  %17 = load ptr, ptr @stderr, align 8, !tbaa !3
  %18 = mul nuw nsw i64 %7, 40
  %19 = tail call i32 (ptr, ptr, ...) @fprintf(ptr noundef %17, ptr noundef nonnull @.str.1, i64 noundef %18) #18
  tail call fastcc void @graphviz_exit() #19
  unreachable

gv_calloc.exit:                                   ; preds = %.thread.i, %13
  %20 = phi ptr [ %8, %.thread.i ], [ %14, %13 ]
  %21 = sext i32 %2 to i64
  %.not.i42 = icmp eq i32 %2, 0
  br i1 %.not.i42, label %.preheader47.thread, label %22

22:                                               ; preds = %gv_calloc.exit
  %mul.ov.i44 = icmp slt i32 %2, 0
  br i1 %mul.ov.i44, label %23, label %26

23:                                               ; preds = %22
  %24 = load ptr, ptr @stderr, align 8, !tbaa !3
  %25 = tail call i32 (ptr, ptr, ...) @fprintf(ptr noundef %24, ptr noundef nonnull @.str, i64 noundef range(i64 -2147483648, 2147483648) %21, i64 noundef 8) #18
  tail call fastcc void @graphviz_exit() #19
  unreachable

26:                                               ; preds = %22
  %27 = tail call noalias ptr @calloc(i64 noundef range(i64 -2147483648, 2147483648) %21, i64 noundef 8) #20
  %28 = icmp eq ptr %27, null
  br i1 %28, label %29, label %.lr.ph

29:                                               ; preds = %26
  %30 = load ptr, ptr @stderr, align 8, !tbaa !3
  %31 = shl nuw nsw i64 %21, 3
  %32 = tail call i32 (ptr, ptr, ...) @fprintf(ptr noundef %30, ptr noundef nonnull @.str.1, i64 noundef %31) #18
  tail call fastcc void @graphviz_exit() #19
  unreachable

.preheader47.thread:                              ; preds = %gv_calloc.exit
  %33 = tail call noalias ptr @calloc(i64 noundef 0, i64 noundef 8) #20
  store ptr %33, ptr %4, align 8, !tbaa !31
  br label %._crit_edge

.lr.ph:                                           ; preds = %26
  store ptr %27, ptr %4, align 8, !tbaa !31
  %34 = sext i32 %3 to i64
  %wide.trip.count = zext nneg i32 %2 to i64
  br label %61

.lr.ph56:                                         ; preds = %61
  %35 = icmp sgt i32 %3, 0
  br i1 %35, label %.preheader.lr.ph.us.preheader, label %._crit_edge

.preheader.lr.ph.us.preheader:                    ; preds = %.lr.ph56
  %36 = zext nneg i32 %3 to i64
  %37 = shl nuw nsw i64 %36, 2
  %wide.trip.count76 = zext nneg i32 %2 to i64
  br label %.preheader.lr.ph.us

.preheader.lr.ph.us:                              ; preds = %.preheader.lr.ph.us.preheader, %._crit_edge54.us
  %indvars.iv73 = phi i64 [ 0, %.preheader.lr.ph.us.preheader ], [ %indvars.iv.next74, %._crit_edge54.us ]
  %38 = getelementptr inbounds nuw %struct.vtx_data, ptr %0, i64 %indvars.iv73
  %39 = getelementptr inbounds nuw i8, ptr %38, i64 8
  %40 = load ptr, ptr %39, align 8, !tbaa !47
  %41 = getelementptr inbounds nuw i8, ptr %38, i64 16
  %42 = load ptr, ptr %41, align 8, !tbaa !51
  %43 = load i64, ptr %38, align 8, !tbaa !52
  %.not = icmp eq i64 %43, 0
  %44 = getelementptr inbounds nuw ptr, ptr %27, i64 %indvars.iv73
  %45 = load ptr, ptr %44, align 8, !tbaa !33
  br i1 %.not, label %.preheader.us57.preheader, label %.preheader.us.us

.preheader.us57.preheader:                        ; preds = %.preheader.lr.ph.us
  tail call void @llvm.memset.p0.i64(ptr align 4 %45, i8 0, i64 %37, i1 false), !tbaa !35
  br label %._crit_edge54.us

._crit_edge54.us:                                 ; preds = %._crit_edge.us.us, %.preheader.us57.preheader
  %indvars.iv.next74 = add nuw nsw i64 %indvars.iv73, 1
  %exitcond77.not = icmp eq i64 %indvars.iv.next74, %wide.trip.count76
  br i1 %exitcond77.not, label %._crit_edge, label %.preheader.lr.ph.us, !llvm.loop !53

.preheader.us.us:                                 ; preds = %.preheader.lr.ph.us, %._crit_edge.us.us
  %indvars.iv65 = phi i64 [ %indvars.iv.next66, %._crit_edge.us.us ], [ 0, %.preheader.lr.ph.us ]
  %46 = getelementptr inbounds nuw ptr, ptr %1, i64 %indvars.iv65
  %47 = load ptr, ptr %46, align 8, !tbaa !8
  br label %48

48:                                               ; preds = %48, %.preheader.us.us
  %.051.us.us = phi i64 [ 0, %.preheader.us.us ], [ %58, %48 ]
  %.04050.us.us = phi double [ 0.000000e+00, %.preheader.us.us ], [ %57, %48 ]
  %49 = getelementptr inbounds nuw float, ptr %42, i64 %.051.us.us
  %50 = load float, ptr %49, align 4, !tbaa !35
  %51 = fpext float %50 to double
  %52 = getelementptr inbounds nuw i32, ptr %40, i64 %.051.us.us
  %53 = load i32, ptr %52, align 4, !tbaa !17
  %54 = sext i32 %53 to i64
  %55 = getelementptr inbounds double, ptr %47, i64 %54
  %56 = load double, ptr %55, align 8, !tbaa !10
  %57 = tail call double @llvm.fmuladd.f64(double %51, double %56, double %.04050.us.us)
  %58 = add nuw i64 %.051.us.us, 1
  %exitcond64.not = icmp eq i64 %58, %43
  br i1 %exitcond64.not, label %._crit_edge.us.us, label %48, !llvm.loop !54

._crit_edge.us.us:                                ; preds = %48
  %59 = fptrunc double %57 to float
  %60 = getelementptr inbounds nuw float, ptr %45, i64 %indvars.iv65
  store float %59, ptr %60, align 4, !tbaa !35
  %indvars.iv.next66 = add nuw nsw i64 %indvars.iv65, 1
  %exitcond69.not = icmp eq i64 %indvars.iv.next66, %36
  br i1 %exitcond69.not, label %._crit_edge54.us, label %.preheader.us.us, !llvm.loop !55

61:                                               ; preds = %.lr.ph, %61
  %indvars.iv = phi i64 [ 0, %.lr.ph ], [ %indvars.iv.next, %61 ]
  %.03948 = phi ptr [ %20, %.lr.ph ], [ %63, %61 ]
  %62 = getelementptr inbounds nuw ptr, ptr %27, i64 %indvars.iv
  store ptr %.03948, ptr %62, align 8, !tbaa !33
  %63 = getelementptr inbounds float, ptr %.03948, i64 %34
  %indvars.iv.next = add nuw nsw i64 %indvars.iv, 1
  %exitcond.not = icmp eq i64 %indvars.iv.next, %wide.trip.count
  br i1 %exitcond.not, label %.lr.ph56, label %61, !llvm.loop !56

._crit_edge:                                      ; preds = %._crit_edge54.us, %.lr.ph56, %.preheader47.thread
  ret void
}